target datalayout = "e-m:e-p270:32:32-p271:32:32-p272:64:64-i64:64-i128:128-f80:128-n8:16:32:64-S128"
target triple = "x86_64-pc-linux-gnu"

%struct.TupleTableSlotOps = type { i64, ptr, ptr, ptr, ptr, ptr, ptr, ptr, ptr, ptr, ptr, ptr, ptr }
%struct.TupleTableSlot = type { i32, i16, i16, ptr, ptr, ptr, ptr, ptr, %struct.ItemPointerData, i32 }
%struct.ItemPointerData = type { %struct.BlockIdData, i16 }
%struct.BlockIdData = type { i16, i16 }
%struct.TupleDescData = type { i32, i32, i32, i32, ptr, [0 x %struct.CompactAttribute] }
%struct.CompactAttribute = type { i32, i16, i8, i8, i8, i8, i8, i8, i8 }
%struct.EState = type { i32, i32, ptr, ptr, ptr, i32, ptr, ptr, ptr, ptr, ptr, ptr, ptr, ptr, ptr, ptr, i32, ptr, ptr, ptr, ptr, ptr, ptr, ptr, ptr, ptr, ptr, i64, i64, i32, i32, i8, ptr, ptr, ptr, ptr, ptr, i8, i32, i32, ptr, i32, ptr, ptr, ptr, ptr }

@CurrentMemoryContext = external global ptr, align 8

; Function Attrs: nounwind uwtable
define dso_local ptr @MakeTupleTableSlot(ptr noundef %0, ptr noundef %1) #0 {
  %3 = alloca ptr, align 8
  %4 = alloca ptr, align 8
  %5 = alloca i64, align 8
  %6 = alloca i64, align 8
  %7 = alloca ptr, align 8
  store ptr %0, ptr %3, align 8
  store ptr %1, ptr %4, align 8
  call void @llvm.lifetime.start.p0(i64 8, ptr %5) #10
  call void @llvm.lifetime.start.p0(i64 8, ptr %6) #10
  call void @llvm.lifetime.start.p0(i64 8, ptr %7) #10
  %8 = load ptr, ptr %4, align 8
  %9 = getelementptr inbounds nuw %struct.TupleTableSlotOps, ptr %8, i32 0, i32 0
  %10 = load i64, ptr %9, align 8
  store i64 %10, ptr %5, align 8
  %11 = load ptr, ptr %3, align 8
  %12 = icmp ne ptr %11, null
  br i1 %12, label %13, label %33

13:                                               ; preds = %2
  %14 = load i64, ptr %5, align 8
  %15 = add i64 %14, 7
  %16 = and i64 %15, -8
  %17 = load ptr, ptr %3, align 8
  %18 = getelementptr inbounds nuw %struct.TupleDescData, ptr %17, i32 0, i32 0
  %19 = load i32, ptr %18, align 8
  %20 = sext i32 %19 to i64
  %21 = mul i64 %20, 8
  %22 = add i64 %21, 7
  %23 = and i64 %22, -8
  %24 = add i64 %16, %23
  %25 = load ptr, ptr %3, align 8
  %26 = getelementptr inbounds nuw %struct.TupleDescData, ptr %25, i32 0, i32 0
  %27 = load i32, ptr %26, align 8
  %28 = sext i32 %27 to i64
  %29 = mul i64 %28, 1
  %30 = add i64 %29, 7
  %31 = and i64 %30, -8
  %32 = add i64 %24, %31
  store i64 %32, ptr %6, align 8
  br label %35

33:                                               ; preds = %2
  %34 = load i64, ptr %5, align 8
  store i64 %34, ptr %6, align 8
  br label %35

35:                                               ; preds = %33, %13
  %36 = load i64, ptr %6, align 8
  %37 = call ptr @palloc0(i64 noundef %36)
  store ptr %37, ptr %7, align 8
  %38 = load ptr, ptr %4, align 8
  %39 = load ptr, ptr %7, align 8
  %40 = getelementptr inbounds nuw %struct.TupleTableSlot, ptr %39, i32 0, i32 3
  store ptr %38, ptr %40, align 8
  %41 = load ptr, ptr %7, align 8
  %42 = getelementptr inbounds nuw %struct.TupleTableSlot, ptr %41, i32 0, i32 0
  store i32 442, ptr %42, align 8
  %43 = load ptr, ptr %7, align 8
  %44 = getelementptr inbounds nuw %struct.TupleTableSlot, ptr %43, i32 0, i32 1
  %45 = load i16, ptr %44, align 4
  %46 = zext i16 %45 to i32
  %47 = or i32 %46, 2
  %48 = trunc i32 %47 to i16
  store i16 %48, ptr %44, align 4
  %49 = load ptr, ptr %3, align 8
  %50 = icmp ne ptr %49, null
  br i1 %50, label %51, label %58

51:                                               ; preds = %35
  %52 = load ptr, ptr %7, align 8
  %53 = getelementptr inbounds nuw %struct.TupleTableSlot, ptr %52, i32 0, i32 1
  %54 = load i16, ptr %53, align 4
  %55 = zext i16 %54 to i32
  %56 = or i32 %55, 16
  %57 = trunc i32 %56 to i16
  store i16 %57, ptr %53, align 4
  br label %58

58:                                               ; preds = %51, %35
  %59 = load ptr, ptr %3, align 8
  %60 = load ptr, ptr %7, align 8
  %61 = getelementptr inbounds nuw %struct.TupleTableSlot, ptr %60, i32 0, i32 4
  store ptr %59, ptr %61, align 8
  %62 = load ptr, ptr @CurrentMemoryContext, align 8
  %63 = load ptr, ptr %7, align 8
  %64 = getelementptr inbounds nuw %struct.TupleTableSlot, ptr %63, i32 0, i32 7
  store ptr %62, ptr %64, align 8
  %65 = load ptr, ptr %7, align 8
  %66 = getelementptr inbounds nuw %struct.TupleTableSlot, ptr %65, i32 0, i32 2
  store i16 0, ptr %66, align 2
  %67 = load ptr, ptr %3, align 8
  %68 = icmp ne ptr %67, null
  br i1 %68, label %69, label %102

69:                                               ; preds = %58
  %70 = load ptr, ptr %7, align 8
  %71 = load i64, ptr %5, align 8
  %72 = add i64 %71, 7
  %73 = and i64 %72, -8
  %74 = getelementptr inbounds nuw i8, ptr %70, i64 %73
  %75 = load ptr, ptr %7, align 8
  %76 = getelementptr inbounds nuw %struct.TupleTableSlot, ptr %75, i32 0, i32 5
  store ptr %74, ptr %76, align 8
  %77 = load ptr, ptr %7, align 8
  %78 = load i64, ptr %5, align 8
  %79 = add i64 %78, 7
  %80 = and i64 %79, -8
  %81 = getelementptr inbounds nuw i8, ptr %77, i64 %80
  %82 = load ptr, ptr %3, align 8
  %83 = getelementptr inbounds nuw %struct.TupleDescData, ptr %82, i32 0, i32 0
  %84 = load i32, ptr %83, align 8
  %85 = sext i32 %84 to i64
  %86 = mul i64 %85, 8
  %87 = add i64 %86, 7
  %88 = and i64 %87, -8
  %89 = getelementptr inbounds nuw i8, ptr %81, i64 %88
  %90 = load ptr, ptr %7, align 8
  %91 = getelementptr inbounds nuw %struct.TupleTableSlot, ptr %90, i32 0, i32 6
  store ptr %89, ptr %91, align 8
  br label %92

92:                                               ; preds = %69
  %93 = load ptr, ptr %3, align 8
  %94 = getelementptr inbounds nuw %struct.TupleDescData, ptr %93, i32 0, i32 3
  %95 = load i32, ptr %94, align 4
  %96 = icmp sge i32 %95, 0
  br i1 %96, label %97, label %99

97:                                               ; preds = %92
  %98 = load ptr, ptr %3, align 8
  call void @IncrTupleDescRefCount(ptr noundef %98)
  br label %99

99:                                               ; preds = %97, %92
  br label %100

100:                                              ; preds = %99
  br label %101

101:                                              ; preds = %100
  br label %102

102:                                              ; preds = %101, %58
  %103 = load ptr, ptr %7, align 8
  %104 = getelementptr inbounds nuw %struct.TupleTableSlot, ptr %103, i32 0, i32 3
  %105 = load ptr, ptr %104, align 8
  %106 = getelementptr inbounds nuw %struct.TupleTableSlotOps, ptr %105, i32 0, i32 1
  %107 = load ptr, ptr %106, align 8
  %108 = load ptr, ptr %7, align 8
  call void %107(ptr noundef %108)
  %109 = load ptr, ptr %7, align 8
  call void @llvm.lifetime.end.p0(i64 8, ptr %7) #10
  call void @llvm.lifetime.end.p0(i64 8, ptr %6) #10
  call void @llvm.lifetime.end.p0(i64 8, ptr %5) #10
  ret ptr %109
}

; Function Attrs: nounwind uwtable
define dso_local ptr @ExecStoreVirtualTuple(ptr noundef %0) #0 {
  %2 = alloca ptr, align 8
  store ptr %0, ptr %2, align 8
  %3 = load ptr, ptr %2, align 8
  %4 = getelementptr inbounds nuw %struct.TupleTableSlot, ptr %3, i32 0, i32 1
  %5 = load i16, ptr %4, align 4
  %6 = zext i16 %5 to i32
  %7 = and i32 %6, -3
  %8 = trunc i32 %7 to i16
  store i16 %8, ptr %4, align 4
  %9 = load ptr, ptr %2, align 8
  %10 = getelementptr inbounds nuw %struct.TupleTableSlot, ptr %9, i32 0, i32 4
  %11 = load ptr, ptr %10, align 8
  %12 = getelementptr inbounds nuw %struct.TupleDescData, ptr %11, i32 0, i32 0
  %13 = load i32, ptr %12, align 8
  %14 = trunc i32 %13 to i16
  %15 = load ptr, ptr %2, align 8
  %16 = getelementptr inbounds nuw %struct.TupleTableSlot, ptr %15, i32 0, i32 2
  store i16 %14, ptr %16, align 2
  %17 = load ptr, ptr %2, align 8
  ret ptr %17
}

; Function Attrs: inlinehint nounwind uwtable
define internal ptr @ExecClearTuple(ptr noundef %0) #4 {
  %2 = alloca ptr, align 8
  store ptr %0, ptr %2, align 8
  %3 = load ptr, ptr %2, align 8
  %4 = getelementptr inbounds nuw %struct.TupleTableSlot, ptr %3, i32 0, i32 3
  %5 = load ptr, ptr %4, align 8
  %6 = getelementptr inbounds nuw %struct.TupleTableSlotOps, ptr %5, i32 0, i32 3
  %7 = load ptr, ptr %6, align 8
  %8 = load ptr, ptr %2, align 8
  call void %7(ptr noundef %8)
  %9 = load ptr, ptr %2, align 8
  ret ptr %9
}

; Function Attrs: nounwind uwtable
define dso_local ptr @ExecAllocTableSlot(ptr noundef %0, ptr noundef %1, ptr noundef %2) #0 {
  %4 = alloca ptr, align 8
  %5 = alloca ptr, align 8
  %6 = alloca ptr, align 8
  %7 = alloca ptr, align 8
  store ptr %0, ptr %4, align 8
  store ptr %1, ptr %5, align 8
  store ptr %2, ptr %6, align 8
  call void @llvm.lifetime.start.p0(i64 8, ptr %7) #10
  %8 = load ptr, ptr %5, align 8
  %9 = load ptr, ptr %6, align 8
  %10 = call ptr @MakeTupleTableSlot(ptr noundef %8, ptr noundef %9)
  store ptr %10, ptr %7, align 8
  %11 = load ptr, ptr %4, align 8
  %12 = load ptr, ptr %11, align 8
  %13 = load ptr, ptr %7, align 8
  %14 = call ptr @lappend(ptr noundef %12, ptr noundef %13)
  %15 = load ptr, ptr %4, align 8
  store ptr %14, ptr %15, align 8
  %16 = load ptr, ptr %7, align 8
  call void @llvm.lifetime.end.p0(i64 8, ptr %7) #10
  ret ptr %16
}

; Function Attrs: nounwind uwtable
define dso_local ptr @ExecStoreAllNullTuple(ptr noundef %0) #0 {
  %2 = alloca ptr, align 8
  %3 = alloca ptr, align 8
  %4 = alloca i32, align 4
  %5 = alloca i64, align 8
  %6 = alloca ptr, align 8
  %7 = alloca ptr, align 8
  store ptr %0, ptr %2, align 8
  %8 = load ptr, ptr %2, align 8
  %9 = call ptr @ExecClearTuple(ptr noundef %8)
  br label %10

10:                                               ; preds = %1
  call void @llvm.lifetime.start.p0(i64 8, ptr %3) #10
  %11 = load ptr, ptr %2, align 8
  %12 = getelementptr inbounds nuw %struct.TupleTableSlot, ptr %11, i32 0, i32 5
  %13 = load ptr, ptr %12, align 8
  store ptr %13, ptr %3, align 8
  call void @llvm.lifetime.start.p0(i64 4, ptr %4) #10
  store i32 0, ptr %4, align 4
  call void @llvm.lifetime.start.p0(i64 8, ptr %5) #10
  %14 = load ptr, ptr %2, align 8
  %15 = getelementptr inbounds nuw %struct.TupleTableSlot, ptr %14, i32 0, i32 4
  %16 = load ptr, ptr %15, align 8
  %17 = getelementptr inbounds nuw %struct.TupleDescData, ptr %16, i32 0, i32 0
  %18 = load i32, ptr %17, align 8
  %19 = sext i32 %18 to i64
  %20 = mul i64 %19, 8
  store i64 %20, ptr %5, align 8
  %21 = load ptr, ptr %3, align 8
  %22 = ptrtoint ptr %21 to i64
  %23 = and i64 %22, 7
  %24 = icmp eq i64 %23, 0
  br i1 %24, label %25, label %48

25:                                               ; preds = %10
  %26 = load i64, ptr %5, align 8
  %27 = and i64 %26, 7
  %28 = icmp eq i64 %27, 0
  br i1 %28, label %29, label %48

29:                                               ; preds = %25
  %30 = load i32, ptr %4, align 4
  %31 = icmp eq i32 %30, 0
  br i1 %31, label %32, label %48

32:                                               ; preds = %29
  %33 = load i64, ptr %5, align 8
  %34 = icmp ule i64 %33, 1024
  br i1 %34, label %35, label %48

35:                                               ; preds = %32
  call void @llvm.lifetime.start.p0(i64 8, ptr %6) #10
  %36 = load ptr, ptr %3, align 8
  store ptr %36, ptr %6, align 8
  call void @llvm.lifetime.start.p0(i64 8, ptr %7) #10
  %37 = load ptr, ptr %6, align 8
  %38 = load i64, ptr %5, align 8
  %39 = getelementptr inbounds nuw i8, ptr %37, i64 %38
  store ptr %39, ptr %7, align 8
  br label %40

40:                                               ; preds = %44, %35
  %41 = load ptr, ptr %6, align 8
  %42 = load ptr, ptr %7, align 8
  %43 = icmp ult ptr %41, %42
  br i1 %43, label %44, label %47

44:                                               ; preds = %40
  %45 = load ptr, ptr %6, align 8
  %46 = getelementptr inbounds nuw i64, ptr %45, i32 1
  store ptr %46, ptr %6, align 8
  store i64 0, ptr %45, align 8
  br label %40, !llvm.loop !11

47:                                               ; preds = %40
  call void @llvm.lifetime.end.p0(i64 8, ptr %7) #10
  call void @llvm.lifetime.end.p0(i64 8, ptr %6) #10
  br label %53

48:                                               ; preds = %32, %29, %25, %10
  %49 = load ptr, ptr %3, align 8
  %50 = load i32, ptr %4, align 4
  %51 = trunc i32 %50 to i8
  %52 = load i64, ptr %5, align 8
  call void @llvm.memset.p0.i64(ptr align 1 %49, i8 %51, i64 %52, i1 false)
  br label %53

53:                                               ; preds = %48, %47
  call void @llvm.lifetime.end.p0(i64 8, ptr %5) #10
  call void @llvm.lifetime.end.p0(i64 4, ptr %4) #10
  call void @llvm.lifetime.end.p0(i64 8, ptr %3) #10
  br label %54

54:                                               ; preds = %53
  %55 = load ptr, ptr %2, align 8
  %56 = getelementptr inbounds nuw %struct.TupleTableSlot, ptr %55, i32 0, i32 6
  %57 = load ptr, ptr %56, align 8
  %58 = load ptr, ptr %2, align 8
  %59 = getelementptr inbounds nuw %struct.TupleTableSlot, ptr %58, i32 0, i32 4
  %60 = load ptr, ptr %59, align 8
  %61 = getelementptr inbounds nuw %struct.TupleDescData, ptr %60, i32 0, i32 0
  %62 = load i32, ptr %61, align 8
  %63 = sext i32 %62 to i64
  %64 = mul i64 %63, 1
  call void @llvm.memset.p0.i64(ptr align 1 %57, i8 1, i64 %64, i1 false)
  %65 = load ptr, ptr %2, align 8
  %66 = call ptr @ExecStoreVirtualTuple(ptr noundef %65)
  ret ptr %66
}

; Function Attrs: nounwind uwtable
define dso_local ptr @ExecInitExtraTupleSlot(ptr noundef %0, ptr noundef %1, ptr noundef %2) #0 {
  %4 = alloca ptr, align 8
  %5 = alloca ptr, align 8
  %6 = alloca ptr, align 8
  store ptr %0, ptr %4, align 8
  store ptr %1, ptr %5, align 8
  store ptr %2, ptr %6, align 8
  %7 = load ptr, ptr %4, align 8
  %8 = getelementptr inbounds nuw %struct.EState, ptr %7, i32 0, i32 26
  %9 = load ptr, ptr %5, align 8
  %10 = load ptr, ptr %6, align 8
  %11 = call ptr @ExecAllocTableSlot(ptr noundef %8, ptr noundef %9, ptr noundef %10)
  ret ptr %11
}

; Function Attrs: nounwind uwtable
define dso_local ptr @ExecInitNullTupleSlot(ptr noundef %0, ptr noundef %1, ptr noundef %2) #0 {
  %4 = alloca ptr, align 8
  %5 = alloca ptr, align 8
  %6 = alloca ptr, align 8
  %7 = alloca ptr, align 8
  store ptr %0, ptr %4, align 8
  store ptr %1, ptr %5, align 8
  store ptr %2, ptr %6, align 8
  call void @llvm.lifetime.start.p0(i64 8, ptr %7) #10
  %8 = load ptr, ptr %4, align 8
  %9 = load ptr, ptr %5, align 8
  %10 = load ptr, ptr %6, align 8
  %11 = call ptr @ExecInitExtraTupleSlot(ptr noundef %8, ptr noundef %9, ptr noundef %10)
  store ptr %11, ptr %7, align 8
  %12 = load ptr, ptr %7, align 8
  %13 = call ptr @ExecStoreAllNullTuple(ptr noundef %12)
  call void @llvm.lifetime.end.p0(i64 8, ptr %7) #10
  ret ptr %13
}