; Function Attrs: nounwind uwtable
define dso_local noundef ptr @ExecInitNullTupleSlot(ptr noundef captures(none) %0, ptr noundef %1, ptr noundef %2) local_unnamed_addr #1 {
  %4 = load i64, ptr %2, align 8
  %.not.i.i.i = icmp eq ptr %1, null
  br i1 %.not.i.i.i, label %15, label %5

5:                                                ; preds = %3
  %6 = add i64 %4, 7
  %7 = and i64 %6, -8
  %8 = load i32, ptr %1, align 8
  %9 = sext i32 %8 to i64
  %10 = shl nsw i64 %9, 3
  %11 = add i64 %10, %7
  %12 = add nsw i64 %9, 7
  %13 = and i64 %12, -8
  %14 = add i64 %11, %13
  br label %15

15:                                               ; preds = %5, %3
  %spec.select.v.i.i.i = phi i16 [ 18, %5 ], [ 2, %3 ]
  %.0.i.i.i = phi i64 [ %14, %5 ], [ %4, %3 ]
  %16 = tail call ptr @palloc0(i64 noundef %.0.i.i.i) #14
  %17 = getelementptr inbounds nuw i8, ptr %16, i64 8
  store ptr %2, ptr %17, align 8
  store i32 442, ptr %16, align 8
  %18 = getelementptr inbounds nuw i8, ptr %16, i64 4
  %19 = load i16, ptr %18, align 4
  %spec.select.i.i.i = or i16 %19, %spec.select.v.i.i.i
  store i16 %spec.select.i.i.i, ptr %18, align 4
  %20 = getelementptr inbounds nuw i8, ptr %16, i64 16
  store ptr %1, ptr %20, align 8
  %21 = load ptr, ptr @CurrentMemoryContext, align 8
  %22 = getelementptr inbounds nuw i8, ptr %16, i64 40
  store ptr %21, ptr %22, align 8
  %23 = getelementptr inbounds nuw i8, ptr %16, i64 6
  store i16 0, ptr %23, align 2
  br i1 %.not.i.i.i, label %ExecInitExtraTupleSlot.exit, label %24

24:                                               ; preds = %15
  %25 = add i64 %4, 7
  %26 = and i64 %25, -8
  %27 = getelementptr inbounds nuw i8, ptr %16, i64 %26
  %28 = getelementptr inbounds nuw i8, ptr %16, i64 24
  store ptr %27, ptr %28, align 8
  %29 = load i32, ptr %1, align 8
  %30 = sext i32 %29 to i64
  %31 = shl nsw i64 %30, 3
  %32 = getelementptr inbounds nuw i8, ptr %27, i64 %31
  %33 = getelementptr inbounds nuw i8, ptr %16, i64 32
  store ptr %32, ptr %33, align 8
  %34 = getelementptr inbounds nuw i8, ptr %1, i64 12
  %35 = load i32, ptr %34, align 4
  %36 = icmp sgt i32 %35, -1
  br i1 %36, label %37, label %ExecInitExtraTupleSlot.exit

37:                                               ; preds = %24
  tail call void @IncrTupleDescRefCount(ptr noundef nonnull %1) #14
  %.pre.i.i.i = load ptr, ptr %17, align 8
  br label %ExecInitExtraTupleSlot.exit

ExecInitExtraTupleSlot.exit:                      ; preds = %15, %24, %37
  %38 = phi ptr [ %2, %24 ], [ %.pre.i.i.i, %37 ], [ %2, %15 ]
  %39 = getelementptr inbounds nuw i8, ptr %0, i64 200
  %40 = getelementptr inbounds nuw i8, ptr %38, i64 8
  %41 = load ptr, ptr %40, align 8
  tail call void %41(ptr noundef nonnull %16) #14
  %42 = load ptr, ptr %39, align 8
  %43 = tail call ptr @lappend(ptr noundef %42, ptr noundef nonnull %16) #14
  store ptr %43, ptr %39, align 8
  %44 = load ptr, ptr %17, align 8
  %45 = getelementptr inbounds nuw i8, ptr %44, i64 24
  %46 = load ptr, ptr %45, align 8
  tail call void %46(ptr noundef nonnull %16) #14
  %47 = getelementptr inbounds nuw i8, ptr %16, i64 24
  %48 = load ptr, ptr %47, align 8
  %49 = load ptr, ptr %20, align 8
  %50 = load i32, ptr %49, align 8
  %51 = sext i32 %50 to i64
  %52 = shl nsw i64 %51, 3
  %53 = ptrtoint ptr %48 to i64
  %54 = and i64 %53, 7
  %55 = icmp eq i64 %54, 0
  %56 = icmp ult i64 %52, 1025
  %or.cond.i = select i1 %55, i1 %56, i1 false
  br i1 %or.cond.i, label %57, label %ExecStoreAllNullTuple.exit.sink.split

57:                                               ; preds = %ExecInitExtraTupleSlot.exit
  %.not.i = icmp eq i32 %50, 0
  br i1 %.not.i, label %ExecStoreAllNullTuple.exit, label %.lr.ph.preheader.i

.lr.ph.preheader.i:                               ; preds = %57
  %58 = add i64 %52, %53
  %59 = add i64 %53, 8
  %umax.i = tail call i64 @llvm.umax.i64(i64 %58, i64 %59)
  %60 = xor i64 %53, -1
  %61 = add i64 %umax.i, %60
  %62 = and i64 %61, -8
  %63 = add i64 %62, 8
  br label %ExecStoreAllNullTuple.exit.sink.split

ExecStoreAllNullTuple.exit.sink.split:            ; preds = %ExecInitExtraTupleSlot.exit, %.lr.ph.preheader.i
  %.sink = phi i64 [ %63, %.lr.ph.preheader.i ], [ %52, %ExecInitExtraTupleSlot.exit ]
  tail call void @llvm.memset.p0.i64(ptr align 1 %48, i8 0, i64 %.sink, i1 false)
  br label %ExecStoreAllNullTuple.exit

ExecStoreAllNullTuple.exit:                       ; preds = %ExecStoreAllNullTuple.exit.sink.split, %57
  %64 = getelementptr inbounds nuw i8, ptr %16, i64 32
  %65 = load ptr, ptr %64, align 8
  %66 = load ptr, ptr %20, align 8
  %67 = load i32, ptr %66, align 8
  %68 = sext i32 %67 to i64
  tail call void @llvm.memset.p0.i64(ptr align 1 %65, i8 1, i64 %68, i1 false)
  %69 = load i16, ptr %18, align 4
  %70 = and i16 %69, -3
  store i16 %70, ptr %18, align 4
  %71 = load ptr, ptr %20, align 8
  %72 = load i32, ptr %71, align 8
  %73 = trunc i32 %72 to i16
  store i16 %73, ptr %23, align 2
  ret ptr %16
}